target datalayout = "e-m:e-p270:32:32-p271:32:32-p272:64:64-i64:64-i128:128-f80:128-n8:16:32:64-S128"
target triple = "x86_64-pc-linux-gnu"

%struct.strbuf = type { i64, i64, ptr }
%struct.stat = type { i64, i64, i64, i32, i32, i32, i32, i64, i64, i64, i64, %struct.timespec, %struct.timespec, %struct.timespec, [3 x i64] }
%struct.timespec = type { i64, i64 }

@show_only = internal global i32 0, align 4
@verbose = internal global i32 0, align 4
@expire = internal global i64 0, align 8
@.str.16 = private unnamed_addr constant [20 x i8] c"Could not stat '%s'\00", align 1
@.str.21 = private unnamed_addr constant [39 x i8] c"Removing stale temporary directory %s\0A\00", align 1
@__const.prune_tmp_file.remove_dir_buf = private unnamed_addr constant %struct.strbuf { i64 0, i64 0, ptr @strbuf_slopbuf }, align 8
@.str.22 = private unnamed_addr constant [34 x i8] c"Removing stale temporary file %s\0A\00", align 1

; Function Attrs: inlinehint nounwind uwtable
define internal void @strbuf_addstr(ptr noundef %0, ptr noundef %1) #5 {
  %3 = alloca ptr, align 8
  %4 = alloca ptr, align 8
  store ptr %0, ptr %3, align 8, !tbaa !53
  store ptr %1, ptr %4, align 8, !tbaa !11
  %5 = load ptr, ptr %3, align 8, !tbaa !53
  %6 = load ptr, ptr %4, align 8, !tbaa !11
  %7 = load ptr, ptr %4, align 8, !tbaa !11
  %8 = call i64 @strlen(ptr noundef %7) #13
  call void @strbuf_add(ptr noundef %5, ptr noundef %6, i64 noundef %8)
  ret void
}

; Function Attrs: inlinehint nounwind uwtable
define internal i32 @const_error() #5 {
  ret i32 -1
}

; Function Attrs: nounwind uwtable
define internal i32 @prune_tmp_file(ptr noundef %0) #0 {
  %2 = alloca i32, align 4
  %3 = alloca ptr, align 8
  %4 = alloca %struct.stat, align 8
  %5 = alloca i32, align 4
  %6 = alloca %struct.strbuf, align 8
  store ptr %0, ptr %3, align 8, !tbaa !11
  call void @llvm.lifetime.start.p0(i64 144, ptr %4) #10
  %7 = load ptr, ptr %3, align 8, !tbaa !11
  %8 = call i32 @lstat64(ptr noundef %7, ptr noundef %4) #10
  %9 = icmp ne i32 %8, 0
  br i1 %9, label %10, label %14

10:                                               ; preds = %1
  %11 = load ptr, ptr %3, align 8, !tbaa !11
  %12 = call i32 (ptr, ...) @error(ptr noundef @.str.16, ptr noundef %11)
  %13 = call i32 @const_error()
  store i32 %13, ptr %2, align 4
  store i32 1, ptr %5, align 4
  br label %59

14:                                               ; preds = %1
  %15 = getelementptr inbounds nuw %struct.stat, ptr %4, i32 0, i32 12
  %16 = getelementptr inbounds nuw %struct.timespec, ptr %15, i32 0, i32 0
  %17 = load i64, ptr %16, align 8, !tbaa !40
  %18 = load i64, ptr @expire, align 8, !tbaa !29
  %19 = icmp ugt i64 %17, %18
  br i1 %19, label %20, label %21

20:                                               ; preds = %14
  store i32 0, ptr %2, align 4
  store i32 1, ptr %5, align 4
  br label %59

21:                                               ; preds = %14
  %22 = getelementptr inbounds nuw %struct.stat, ptr %4, i32 0, i32 3
  %23 = load i32, ptr %22, align 8, !tbaa !52
  %24 = and i32 %23, 61440
  %25 = icmp eq i32 %24, 16384
  br i1 %25, label %26, label %42

26:                                               ; preds = %21
  %27 = load i32, ptr @show_only, align 4, !tbaa !4
  %28 = icmp ne i32 %27, 0
  br i1 %28, label %32, label %29

29:                                               ; preds = %26
  %30 = load i32, ptr @verbose, align 4, !tbaa !4
  %31 = icmp ne i32 %30, 0
  br i1 %31, label %32, label %35

32:                                               ; preds = %29, %26
  %33 = load ptr, ptr %3, align 8, !tbaa !11
  %34 = call i32 (ptr, ...) @printf(ptr noundef @.str.21, ptr noundef %33)
  br label %35

35:                                               ; preds = %32, %29
  %36 = load i32, ptr @show_only, align 4, !tbaa !4
  %37 = icmp ne i32 %36, 0
  br i1 %37, label %41, label %38

38:                                               ; preds = %35
  call void @llvm.lifetime.start.p0(i64 24, ptr %6) #10
  call void @llvm.memcpy.p0.p0.i64(ptr align 8 %6, ptr align 8 @__const.prune_tmp_file.remove_dir_buf, i64 24, i1 false)
  %39 = load ptr, ptr %3, align 8, !tbaa !11
  call void @strbuf_addstr(ptr noundef %6, ptr noundef %39)
  %40 = call i32 @remove_dir_recursively(ptr noundef %6, i32 noundef 0)
  call void @strbuf_release(ptr noundef %6)
  call void @llvm.lifetime.end.p0(i64 24, ptr %6) #10
  br label %41

41:                                               ; preds = %38, %35
  br label %58

42:                                               ; preds = %21
  %43 = load i32, ptr @show_only, align 4, !tbaa !4
  %44 = icmp ne i32 %43, 0
  br i1 %44, label %48, label %45

45:                                               ; preds = %42
  %46 = load i32, ptr @verbose, align 4, !tbaa !4
  %47 = icmp ne i32 %46, 0
  br i1 %47, label %48, label %51

48:                                               ; preds = %45, %42
  %49 = load ptr, ptr %3, align 8, !tbaa !11
  %50 = call i32 (ptr, ...) @printf(ptr noundef @.str.22, ptr noundef %49)
  br label %51

51:                                               ; preds = %48, %45
  %52 = load i32, ptr @show_only, align 4, !tbaa !4
  %53 = icmp ne i32 %52, 0
  br i1 %53, label %57, label %54

54:                                               ; preds = %51
  %55 = load ptr, ptr %3, align 8, !tbaa !11
  %56 = call i32 @unlink_or_warn(ptr noundef %55)
  br label %57

57:                                               ; preds = %54, %51
  br label %58

58:                                               ; preds = %57, %41
  store i32 0, ptr %2, align 4
  store i32 1, ptr %5, align 4
  br label %59

59:                                               ; preds = %58, %20, %10
  call void @llvm.lifetime.end.p0(i64 144, ptr %4) #10
  %60 = load i32, ptr %2, align 4
  ret i32 %60
}