; Function Attrs: nounwind uwtable
define internal fastcc void @prune_tmp_file(ptr noundef %0) unnamed_addr #0 {
  %2 = alloca %struct.stat, align 8
  %3 = alloca %struct.strbuf, align 8
  call void @llvm.lifetime.start.p0(i64 144, ptr nonnull %2) #12
  %4 = call i32 @lstat64(ptr noundef %0, ptr noundef nonnull %2) #12
  %.not = icmp eq i32 %4, 0
  br i1 %.not, label %7, label %5

5:                                                ; preds = %1
  %6 = tail call i32 (ptr, ...) @error(ptr noundef nonnull @.str.16, ptr noundef %0) #12
  br label %30

7:                                                ; preds = %1
  %8 = getelementptr inbounds nuw i8, ptr %2, i64 88
  %9 = load i64, ptr %8, align 8, !tbaa !28
  %10 = load i64, ptr @expire, align 8, !tbaa !21
  %11 = icmp ugt i64 %9, %10
  br i1 %11, label %30, label %12

12:                                               ; preds = %7
  %13 = getelementptr inbounds nuw i8, ptr %2, i64 24
  %14 = load i32, ptr %13, align 8, !tbaa !36
  %15 = and i32 %14, 61440
  %16 = icmp eq i32 %15, 16384
  %17 = load i32, ptr @show_only, align 4, !tbaa !4
  %18 = icmp ne i32 %17, 0
  %19 = load i32, ptr @verbose, align 4
  %20 = icmp ne i32 %19, 0
  %or.cond = select i1 %18, i1 true, i1 %20
  br i1 %16, label %21, label %26

21:                                               ; preds = %12
  br i1 %or.cond, label %22, label %.thread

22:                                               ; preds = %21
  %23 = tail call i32 (ptr, ...) @printf(ptr noundef nonnull dereferenceable(1) @.str.21, ptr noundef %0)
  %.pr = load i32, ptr @show_only, align 4, !tbaa !4
  %.not10 = icmp eq i32 %.pr, 0
  br i1 %.not10, label %.thread, label %30

.thread:                                          ; preds = %21, %22
  call void @llvm.lifetime.start.p0(i64 24, ptr nonnull %3) #12
  call void @llvm.memcpy.p0.p0.i64(ptr noundef nonnull align 8 dereferenceable(24) %3, ptr noundef nonnull align 8 dereferenceable(24) @__const.prune_tmp_file.remove_dir_buf, i64 24, i1 false)
  %24 = tail call i64 @strlen(ptr noundef nonnull dereferenceable(1) %0) #16
  call void @strbuf_add(ptr noundef nonnull %3, ptr noundef nonnull %0, i64 noundef %24) #12
  %25 = call i32 @remove_dir_recursively(ptr noundef nonnull %3, i32 noundef 0) #12
  call void @strbuf_release(ptr noundef nonnull %3) #12
  call void @llvm.lifetime.end.p0(i64 24, ptr nonnull %3) #12
  br label %30

26:                                               ; preds = %12
  br i1 %or.cond, label %27, label %.thread13

27:                                               ; preds = %26
  %28 = tail call i32 (ptr, ...) @printf(ptr noundef nonnull dereferenceable(1) @.str.22, ptr noundef %0)
  %.pr12 = load i32, ptr @show_only, align 4, !tbaa !4
  %.not9 = icmp eq i32 %.pr12, 0
  br i1 %.not9, label %.thread13, label %30

.thread13:                                        ; preds = %26, %27
  %29 = tail call i32 @unlink_or_warn(ptr noundef %0) #12
  br label %30

30:                                               ; preds = %.thread, %22, %.thread13, %27, %7, %5
  call void @llvm.lifetime.end.p0(i64 144, ptr nonnull %2) #12
  ret void
}